target datalayout = "e-m:e-p270:32:32-p271:32:32-p272:64:64-i64:64-i128:128-f80:128-n8:16:32:64-S128"
target triple = "x86_64-pc-linux-gnu"

%struct.slurm_conf_t = type { i64, ptr, i16, ptr, ptr, ptr, ptr, ptr, i16, ptr, ptr, ptr, ptr, ptr, ptr, ptr, i16, ptr, ptr, ptr, ptr, i16, ptr, ptr, ptr, i64, ptr, ptr, ptr, ptr, i16, ptr, ptr, i16, i32, ptr, i32, ptr, i32, i32, ptr, ptr, i64, i64, ptr, i16, i16, ptr, i32, i32, ptr, i32, ptr, i32, i16, i16, i16, ptr, i16, i16, ptr, ptr, i32, i16, i16, ptr, i32, i16, ptr, ptr, ptr, ptr, i16, ptr, ptr, ptr, ptr, i32, ptr, ptr, ptr, ptr, i16, i16, ptr, i32, i32, i32, i16, i16, ptr, ptr, i16, ptr, ptr, i32, i32, i32, i32, i32, i64, i32, i32, i16, ptr, ptr, i32, ptr, ptr, ptr, i16, i32, ptr, ptr, i16, ptr, ptr, i32, i16, ptr, ptr, ptr, ptr, i32, i32, i16, i16, i32, ptr, i16, ptr, i32, i32, i32, i32, i32, i32, ptr, i16, ptr, ptr, i32, i16, ptr, i32, i16, i16, ptr, ptr, ptr, i16, ptr, ptr, ptr, ptr, i16, i16, ptr, i16, ptr, i16, ptr, i16, ptr, i16, ptr, ptr, ptr, ptr, i16, ptr, ptr, ptr, i32, ptr, i32, ptr, ptr, i16, ptr, ptr, i32, i16, ptr, ptr, i16, i16, ptr, i16, ptr, ptr, ptr, i32, ptr, i16, i16, ptr, ptr, ptr, ptr, ptr, ptr, ptr, ptr, i16, i32, i16, ptr, ptr, ptr, ptr, i32, ptr, ptr, ptr, i16, ptr, ptr, ptr, i16, ptr, i16, ptr, i16, i16, ptr }
%struct.node_record = type { ptr, ptr, i16, i64, i64, ptr, ptr, ptr, i16, ptr, i16, i16, i32, i32, i64, ptr, i16, i16, ptr, ptr, ptr, ptr, ptr, i64, i64, ptr, ptr, ptr, ptr, i32, ptr, ptr, i64, i64, i32, ptr, i64, ptr, i32, i16, ptr, ptr, i32, ptr, i32, i8, ptr, i32, i16, i16, ptr, i16, i64, i16, i64, ptr, i64, i32, i16, i64, i16, ptr, i16, i64, ptr, i64, i16, i32, i16, ptr, ptr, ptr, i16, i32, i16, i16, i32, ptr, i16, i32 }
%struct.job_record = type { i32, ptr, ptr, ptr, ptr, i16, i32, i32, i32, ptr, i32, ptr, ptr, i16, ptr, double, i64, ptr, ptr, ptr, ptr, ptr, ptr, i32, ptr, i32, i64, i64, i32, i32, ptr, i16, i64, i64, i8, i32, ptr, ptr, ptr, ptr, ptr, ptr, ptr, ptr, i32, ptr, ptr, i32, ptr, i32, ptr, i32, ptr, i32, ptr, ptr, ptr, ptr, ptr, ptr, i32, i16, i64, ptr, ptr, ptr, ptr, %struct.acct_policy_limit_set_t, i16, ptr, ptr, ptr, ptr, ptr, i32, ptr, ptr, ptr, ptr, ptr, i32, i32, ptr, ptr, ptr, i16, ptr, ptr, i8, ptr, ptr, i64, i64, i8, i32, i32, i8, i32, ptr, i32, i64, i32, ptr, ptr, ptr, i8, i16, i64, i32, ptr, ptr, ptr, ptr, ptr, i16, i32, ptr, ptr, ptr, ptr, i32, ptr, i32, i16, i64, ptr, i32, i32, ptr, i64, ptr, ptr, i64, i32, i32, i64, i32, i32, ptr, ptr, ptr, ptr, ptr, ptr, ptr, ptr, ptr, ptr, ptr, ptr, i32, ptr, i16, i16, i16, i16, ptr, i32, i32, i8, i64 }
%struct.acct_policy_limit_set_t = type { i16, i16, ptr }
%struct.job_details_t = type { i32, ptr, i64, ptr, i32, ptr, i64, ptr, i16, i16, ptr, i16, i32, i32, i32, i16, ptr, i16, ptr, ptr, ptr, i16, ptr, ptr, ptr, ptr, i32, ptr, ptr, ptr, ptr, ptr, i32, i32, i32, ptr, ptr, i16, i32, i32, i32, i32, i32, i32, i16, i16, i32, i8, i8, i32, i32, i64, i64, i16, i32, ptr, ptr, i8, ptr, i32, ptr, i64, ptr, ptr, i16, i16, i16, i8, ptr, ptr, ptr, ptr, ptr, ptr, i64, i32, i32, i8, ptr, i16, ptr, ptr, i16 }

@cg_node_bitmap = dso_local global ptr null, align 8
@idle_node_bitmap = dso_local global ptr null, align 8
@share_node_bitmap = dso_local global ptr null, align 8
@slurm_conf = external global %struct.slurm_conf_t, align 8
@acct_db_conn = external global ptr, align 8
@last_node_update = external global i64, align 8
@.str.114 = private unnamed_addr constant [38 x i8] c"%s: %pJ node %s sus_job_cnt underflow\00", align 1
@__func__.make_node_comp = private unnamed_addr constant [15 x i8] c"make_node_comp\00", align 1
@.str.115 = private unnamed_addr constant [38 x i8] c"%s: %pJ node %s run_job_cnt underflow\00", align 1
@.str.116 = private unnamed_addr constant [43 x i8] c"%s: %pJ node %s no_share_job_cnt underflow\00", align 1
@.str.117 = private unnamed_addr constant [28 x i8] c"%s: Node %s being left DOWN\00", align 1

; Function Attrs: nounwind uwtable
define dso_local void @make_node_comp(ptr noundef %0, ptr noundef %1, i1 noundef zeroext %2) #0 {
  %4 = alloca ptr, align 8
  %5 = alloca ptr, align 8
  %6 = alloca i8, align 1
  %7 = alloca i32, align 4
  %8 = alloca i64, align 8
  store ptr %0, ptr %4, align 8
  store ptr %1, ptr %5, align 8
  %9 = zext i1 %2 to i8
  store i8 %9, ptr %6, align 1
  call void @llvm.lifetime.start.p0(i64 4, ptr %7) #10
  call void @llvm.lifetime.start.p0(i64 8, ptr %8) #10
  %10 = call i64 @time(ptr noundef null) #10
  store i64 %10, ptr %8, align 8
  %11 = load i8, ptr %6, align 1, !range !11, !noundef !12
  %12 = trunc i8 %11 to i1
  br i1 %12, label %13, label %30

13:                                               ; preds = %3
  %14 = load ptr, ptr %4, align 8
  %15 = getelementptr inbounds nuw %struct.node_record, ptr %14, i32 0, i32 66
  %16 = load i16, ptr %15, align 8
  %17 = icmp ne i16 %16, 0
  br i1 %17, label %18, label %23

18:                                               ; preds = %13
  %19 = load ptr, ptr %4, align 8
  %20 = getelementptr inbounds nuw %struct.node_record, ptr %19, i32 0, i32 66
  %21 = load i16, ptr %20, align 8
  %22 = add i16 %21, -1
  store i16 %22, ptr %20, align 8
  br label %29

23:                                               ; preds = %13
  %24 = load ptr, ptr %5, align 8
  %25 = load ptr, ptr %4, align 8
  %26 = getelementptr inbounds nuw %struct.node_record, ptr %25, i32 0, i32 37
  %27 = load ptr, ptr %26, align 8
  %28 = call i32 (ptr, ...) @error(ptr noundef @.str.114, ptr noundef @__func__.make_node_comp, ptr noundef %24, ptr noundef %27)
  br label %29

29:                                               ; preds = %23, %18
  br label %89

30:                                               ; preds = %3
  %31 = load ptr, ptr %4, align 8
  %32 = getelementptr inbounds nuw %struct.node_record, ptr %31, i32 0, i32 62
  %33 = load i16, ptr %32, align 8
  %34 = icmp ne i16 %33, 0
  br i1 %34, label %35, label %40

35:                                               ; preds = %30
  %36 = load ptr, ptr %4, align 8
  %37 = getelementptr inbounds nuw %struct.node_record, ptr %36, i32 0, i32 62
  %38 = load i16, ptr %37, align 8
  %39 = add i16 %38, -1
  store i16 %39, ptr %37, align 8
  br label %46

40:                                               ; preds = %30
  %41 = load ptr, ptr %5, align 8
  %42 = load ptr, ptr %4, align 8
  %43 = getelementptr inbounds nuw %struct.node_record, ptr %42, i32 0, i32 37
  %44 = load ptr, ptr %43, align 8
  %45 = call i32 (ptr, ...) @error(ptr noundef @.str.115, ptr noundef @__func__.make_node_comp, ptr noundef %41, ptr noundef %44)
  br label %46

46:                                               ; preds = %40, %35
  %47 = load ptr, ptr %5, align 8
  %48 = getelementptr inbounds nuw %struct.job_record, ptr %47, i32 0, i32 30
  %49 = load ptr, ptr %48, align 8
  %50 = icmp ne ptr %49, null
  br i1 %50, label %51, label %88

51:                                               ; preds = %46
  %52 = load ptr, ptr %5, align 8
  %53 = getelementptr inbounds nuw %struct.job_record, ptr %52, i32 0, i32 30
  %54 = load ptr, ptr %53, align 8
  %55 = getelementptr inbounds nuw %struct.job_details_t, ptr %54, i32 0, i32 67
  %56 = load i8, ptr %55, align 2
  %57 = zext i8 %56 to i32
  %58 = icmp eq i32 %57, 0
  br i1 %58, label %59, label %88

59:                                               ; preds = %51
  %60 = load ptr, ptr %4, align 8
  %61 = getelementptr inbounds nuw %struct.node_record, ptr %60, i32 0, i32 39
  %62 = load i16, ptr %61, align 4
  %63 = icmp ne i16 %62, 0
  br i1 %63, label %64, label %69

64:                                               ; preds = %59
  %65 = load ptr, ptr %4, align 8
  %66 = getelementptr inbounds nuw %struct.node_record, ptr %65, i32 0, i32 39
  %67 = load i16, ptr %66, align 4
  %68 = add i16 %67, -1
  store i16 %68, ptr %66, align 4
  br label %75

69:                                               ; preds = %59
  %70 = load ptr, ptr %5, align 8
  %71 = load ptr, ptr %4, align 8
  %72 = getelementptr inbounds nuw %struct.node_record, ptr %71, i32 0, i32 37
  %73 = load ptr, ptr %72, align 8
  %74 = call i32 (ptr, ...) @error(ptr noundef @.str.116, ptr noundef @__func__.make_node_comp, ptr noundef %70, ptr noundef %73)
  br label %75

75:                                               ; preds = %69, %64
  %76 = load ptr, ptr %4, align 8
  %77 = getelementptr inbounds nuw %struct.node_record, ptr %76, i32 0, i32 39
  %78 = load i16, ptr %77, align 4
  %79 = zext i16 %78 to i32
  %80 = icmp eq i32 %79, 0
  br i1 %80, label %81, label %87

81:                                               ; preds = %75
  %82 = load ptr, ptr @share_node_bitmap, align 8
  %83 = load ptr, ptr %4, align 8
  %84 = getelementptr inbounds nuw %struct.node_record, ptr %83, i32 0, i32 29
  %85 = load i32, ptr %84, align 8
  %86 = zext i32 %85 to i64
  call void @bit_set(ptr noundef %82, i64 noundef %86)
  br label %87

87:                                               ; preds = %81, %75
  br label %88

88:                                               ; preds = %87, %51, %46
  br label %89

89:                                               ; preds = %88, %29
  %90 = load ptr, ptr %4, align 8
  %91 = getelementptr inbounds nuw %struct.node_record, ptr %90, i32 0, i32 44
  %92 = load i32, ptr %91, align 8
  %93 = and i32 %92, 15
  %94 = icmp eq i32 %93, 1
  br i1 %94, label %125, label %95

95:                                               ; preds = %89
  %96 = load ptr, ptr %4, align 8
  %97 = getelementptr inbounds nuw %struct.node_record, ptr %96, i32 0, i32 44
  %98 = load i32, ptr %97, align 8
  %99 = zext i32 %98 to i64
  %100 = and i64 %99, 4096
  %101 = icmp ne i64 %100, 0
  br i1 %101, label %125, label %102

102:                                              ; preds = %95
  %103 = load ptr, ptr %4, align 8
  %104 = getelementptr inbounds nuw %struct.node_record, ptr %103, i32 0, i32 44
  %105 = load i32, ptr %104, align 8
  %106 = zext i32 %105 to i64
  %107 = and i64 %106, 16384
  %108 = icmp ne i64 %107, 0
  br i1 %108, label %125, label %109

109:                                              ; preds = %102
  %110 = load ptr, ptr %4, align 8
  %111 = getelementptr inbounds nuw %struct.node_record, ptr %110, i32 0, i32 8
  %112 = load i16, ptr %111, align 8
  %113 = add i16 %112, 1
  store i16 %113, ptr %111, align 8
  %114 = load ptr, ptr %4, align 8
  %115 = getelementptr inbounds nuw %struct.node_record, ptr %114, i32 0, i32 44
  %116 = load i32, ptr %115, align 8
  %117 = zext i32 %116 to i64
  %118 = or i64 %117, 1024
  %119 = trunc i64 %118 to i32
  store i32 %119, ptr %115, align 8
  %120 = load ptr, ptr @cg_node_bitmap, align 8
  %121 = load ptr, ptr %4, align 8
  %122 = getelementptr inbounds nuw %struct.node_record, ptr %121, i32 0, i32 29
  %123 = load i32, ptr %122, align 8
  %124 = zext i32 %123 to i64
  call void @bit_set(ptr noundef %120, i64 noundef %124)
  br label %125

125:                                              ; preds = %109, %102, %95, %89
  %126 = load ptr, ptr %4, align 8
  %127 = getelementptr inbounds nuw %struct.node_record, ptr %126, i32 0, i32 44
  %128 = load i32, ptr %127, align 8
  %129 = and i32 %128, -16
  store i32 %129, ptr %7, align 4
  %130 = load ptr, ptr %4, align 8
  %131 = getelementptr inbounds nuw %struct.node_record, ptr %130, i32 0, i32 62
  %132 = load i16, ptr %131, align 8
  %133 = icmp ne i16 %132, 0
  br i1 %133, label %148, label %134

134:                                              ; preds = %125
  %135 = load ptr, ptr %4, align 8
  %136 = getelementptr inbounds nuw %struct.node_record, ptr %135, i32 0, i32 8
  %137 = load i16, ptr %136, align 8
  %138 = icmp ne i16 %137, 0
  br i1 %138, label %148, label %139

139:                                              ; preds = %134
  %140 = load i64, ptr %8, align 8
  %141 = load ptr, ptr %4, align 8
  %142 = getelementptr inbounds nuw %struct.node_record, ptr %141, i32 0, i32 32
  store i64 %140, ptr %142, align 8
  %143 = load ptr, ptr @idle_node_bitmap, align 8
  %144 = load ptr, ptr %4, align 8
  %145 = getelementptr inbounds nuw %struct.node_record, ptr %144, i32 0, i32 29
  %146 = load i32, ptr %145, align 8
  %147 = zext i32 %146 to i64
  call void @bit_set(ptr noundef %143, i64 noundef %147)
  br label %148

148:                                              ; preds = %139, %134, %125
  %149 = load ptr, ptr %4, align 8
  %150 = getelementptr inbounds nuw %struct.node_record, ptr %149, i32 0, i32 44
  %151 = load i32, ptr %150, align 8
  %152 = zext i32 %151 to i64
  %153 = and i64 %152, 512
  %154 = icmp ne i64 %153, 0
  br i1 %154, label %162, label %155

155:                                              ; preds = %148
  %156 = load ptr, ptr %4, align 8
  %157 = getelementptr inbounds nuw %struct.node_record, ptr %156, i32 0, i32 44
  %158 = load i32, ptr %157, align 8
  %159 = zext i32 %158 to i64
  %160 = and i64 %159, 8192
  %161 = icmp ne i64 %160, 0
  br i1 %161, label %162, label %181

162:                                              ; preds = %155, %148
  %163 = load ptr, ptr %4, align 8
  call void @trigger_node_draining(ptr noundef %163)
  %164 = load ptr, ptr %4, align 8
  %165 = getelementptr inbounds nuw %struct.node_record, ptr %164, i32 0, i32 62
  %166 = load i16, ptr %165, align 8
  %167 = icmp ne i16 %166, 0
  br i1 %167, label %180, label %168

168:                                              ; preds = %162
  %169 = load ptr, ptr %4, align 8
  %170 = getelementptr inbounds nuw %struct.node_record, ptr %169, i32 0, i32 8
  %171 = load i16, ptr %170, align 8
  %172 = icmp ne i16 %171, 0
  br i1 %172, label %180, label %173

173:                                              ; preds = %168
  %174 = load ptr, ptr %4, align 8
  call void @trigger_node_drained(ptr noundef %174)
  %175 = load ptr, ptr @acct_db_conn, align 8
  %176 = load ptr, ptr %4, align 8
  %177 = load i64, ptr %8, align 8
  %178 = load i32, ptr getelementptr inbounds nuw (%struct.slurm_conf_t, ptr @slurm_conf, i32 0, i32 173), align 8
  %179 = call i32 @clusteracct_storage_g_node_down(ptr noundef %175, ptr noundef %176, i64 noundef %177, ptr noundef null, i32 noundef %178)
  br label %180

180:                                              ; preds = %173, %168, %162
  br label %181

181:                                              ; preds = %180, %155
  %182 = load ptr, ptr %4, align 8
  %183 = getelementptr inbounds nuw %struct.node_record, ptr %182, i32 0, i32 44
  %184 = load i32, ptr %183, align 8
  %185 = and i32 %184, 15
  %186 = icmp eq i32 %185, 1
  br i1 %186, label %187, label %201

187:                                              ; preds = %181
  br label %188

188:                                              ; preds = %187
  br label %189

189:                                              ; preds = %188
  %190 = call i32 @get_log_level()
  %191 = icmp sge i32 %190, 7
  br i1 %191, label %192, label %196

192:                                              ; preds = %189
  %193 = load ptr, ptr %4, align 8
  %194 = getelementptr inbounds nuw %struct.node_record, ptr %193, i32 0, i32 37
  %195 = load ptr, ptr %194, align 8
  call void (i32, ptr, ...) @log_var(i32 noundef 7, ptr noundef @.str.117, ptr noundef @__func__.make_node_comp, ptr noundef %195)
  br label %196

196:                                              ; preds = %192, %189
  br label %197

197:                                              ; preds = %196
  br label %198

198:                                              ; preds = %197
  br label %199

199:                                              ; preds = %198
  br label %200

200:                                              ; preds = %199
  br label %220

201:                                              ; preds = %181
  %202 = load ptr, ptr %4, align 8
  %203 = getelementptr inbounds nuw %struct.node_record, ptr %202, i32 0, i32 62
  %204 = load i16, ptr %203, align 8
  %205 = icmp ne i16 %204, 0
  br i1 %205, label %206, label %211

206:                                              ; preds = %201
  %207 = load i32, ptr %7, align 4
  %208 = or i32 3, %207
  %209 = load ptr, ptr %4, align 8
  %210 = getelementptr inbounds nuw %struct.node_record, ptr %209, i32 0, i32 44
  store i32 %208, ptr %210, align 8
  br label %219

211:                                              ; preds = %201
  %212 = load i32, ptr %7, align 4
  %213 = or i32 2, %212
  %214 = load ptr, ptr %4, align 8
  %215 = getelementptr inbounds nuw %struct.node_record, ptr %214, i32 0, i32 44
  store i32 %213, ptr %215, align 8
  %216 = load i64, ptr %8, align 8
  %217 = load ptr, ptr %4, align 8
  %218 = getelementptr inbounds nuw %struct.node_record, ptr %217, i32 0, i32 32
  store i64 %216, ptr %218, align 8
  br label %219

219:                                              ; preds = %211, %206
  br label %220

220:                                              ; preds = %219, %200
  %221 = load i64, ptr %8, align 8
  store i64 %221, ptr @last_node_update, align 8
  call void @llvm.lifetime.end.p0(i64 8, ptr %8) #10
  call void @llvm.lifetime.end.p0(i64 4, ptr %7) #10
  ret void
}