; Function Attrs: nounwind uwtable
define dso_local void @make_node_comp(ptr noundef %0, ptr noundef %1, i1 noundef zeroext %2) local_unnamed_addr #0 {
  %4 = tail call i64 @time(ptr noundef null) #15
  br i1 %2, label %5, label %14

5:                                                ; preds = %3
  %6 = getelementptr inbounds nuw i8, ptr %0, i64 464
  %7 = load i16, ptr %6, align 8
  %.not51 = icmp eq i16 %7, 0
  br i1 %.not51, label %10, label %8

8:                                                ; preds = %5
  %9 = add i16 %7, -1
  store i16 %9, ptr %6, align 8
  br label %47

10:                                               ; preds = %5
  %11 = getelementptr inbounds nuw i8, ptr %0, i64 272
  %12 = load ptr, ptr %11, align 8
  %13 = tail call i32 (ptr, ...) @error(ptr noundef nonnull @.str.114, ptr noundef nonnull @__func__.make_node_comp, ptr noundef %1, ptr noundef %12) #15
  br label %47

14:                                               ; preds = %3
  %15 = getelementptr inbounds nuw i8, ptr %0, i64 432
  %16 = load i16, ptr %15, align 8
  %.not = icmp eq i16 %16, 0
  br i1 %.not, label %19, label %17

17:                                               ; preds = %14
  %18 = add i16 %16, -1
  store i16 %18, ptr %15, align 8
  br label %23

19:                                               ; preds = %14
  %20 = getelementptr inbounds nuw i8, ptr %0, i64 272
  %21 = load ptr, ptr %20, align 8
  %22 = tail call i32 (ptr, ...) @error(ptr noundef nonnull @.str.115, ptr noundef nonnull @__func__.make_node_comp, ptr noundef %1, ptr noundef %21) #15
  br label %23

23:                                               ; preds = %19, %17
  %24 = getelementptr inbounds nuw i8, ptr %1, i64 216
  %25 = load ptr, ptr %24, align 8
  %.not49 = icmp eq ptr %25, null
  br i1 %.not49, label %47, label %26

26:                                               ; preds = %23
  %27 = getelementptr inbounds nuw i8, ptr %25, i64 414
  %28 = load i8, ptr %27, align 2
  %29 = icmp eq i8 %28, 0
  br i1 %29, label %30, label %47

30:                                               ; preds = %26
  %31 = getelementptr inbounds nuw i8, ptr %0, i64 284
  %32 = load i16, ptr %31, align 4
  %.not50 = icmp eq i16 %32, 0
  br i1 %.not50, label %35, label %33

33:                                               ; preds = %30
  %34 = add i16 %32, -1
  store i16 %34, ptr %31, align 4
  br label %39

35:                                               ; preds = %30
  %36 = getelementptr inbounds nuw i8, ptr %0, i64 272
  %37 = load ptr, ptr %36, align 8
  %38 = tail call i32 (ptr, ...) @error(ptr noundef nonnull @.str.116, ptr noundef nonnull @__func__.make_node_comp, ptr noundef nonnull %1, ptr noundef %37) #15
  %.pr = load i16, ptr %31, align 4
  br label %39

39:                                               ; preds = %35, %33
  %40 = phi i16 [ %.pr, %35 ], [ %34, %33 ]
  %41 = icmp eq i16 %40, 0
  br i1 %41, label %42, label %47

42:                                               ; preds = %39
  %43 = load ptr, ptr @share_node_bitmap, align 8
  %44 = getelementptr inbounds nuw i8, ptr %0, i64 208
  %45 = load i32, ptr %44, align 8
  %46 = zext i32 %45 to i64
  tail call void @bit_set(ptr noundef %43, i64 noundef %46) #15
  br label %47

47:                                               ; preds = %23, %26, %42, %39, %8, %10
  %48 = getelementptr inbounds nuw i8, ptr %0, i64 320
  %49 = load i32, ptr %48, align 8
  %50 = and i32 %49, 15
  %51 = icmp ne i32 %50, 1
  %52 = and i32 %49, 20480
  %or.cond = icmp eq i32 %52, 0
  %or.cond62 = and i1 %51, %or.cond
  br i1 %or.cond62, label %53, label %62

53:                                               ; preds = %47
  %54 = getelementptr inbounds nuw i8, ptr %0, i64 64
  %55 = load i16, ptr %54, align 8
  %56 = add i16 %55, 1
  store i16 %56, ptr %54, align 8
  %57 = or i32 %49, 1024
  store i32 %57, ptr %48, align 8
  %58 = load ptr, ptr @cg_node_bitmap, align 8
  %59 = getelementptr inbounds nuw i8, ptr %0, i64 208
  %60 = load i32, ptr %59, align 8
  %61 = zext i32 %60 to i64
  tail call void @bit_set(ptr noundef %58, i64 noundef %61) #15
  %.pre = load i32, ptr %48, align 8
  br label %62

62:                                               ; preds = %53, %47
  %63 = phi i32 [ %.pre, %53 ], [ %49, %47 ]
  %64 = and i32 %63, -16
  %65 = getelementptr inbounds nuw i8, ptr %0, i64 432
  %66 = load i16, ptr %65, align 8
  %.not54 = icmp eq i16 %66, 0
  br i1 %.not54, label %67, label %76

67:                                               ; preds = %62
  %68 = getelementptr inbounds nuw i8, ptr %0, i64 64
  %69 = load i16, ptr %68, align 8
  %.not55 = icmp eq i16 %69, 0
  br i1 %.not55, label %70, label %76

70:                                               ; preds = %67
  %71 = getelementptr inbounds nuw i8, ptr %0, i64 232
  store i64 %4, ptr %71, align 8
  %72 = load ptr, ptr @idle_node_bitmap, align 8
  %73 = getelementptr inbounds nuw i8, ptr %0, i64 208
  %74 = load i32, ptr %73, align 8
  %75 = zext i32 %74 to i64
  tail call void @bit_set(ptr noundef %72, i64 noundef %75) #15
  %.pre63 = load i32, ptr %48, align 8
  br label %76

76:                                               ; preds = %70, %67, %62
  %77 = phi i32 [ %.pre63, %70 ], [ %63, %67 ], [ %63, %62 ]
  %78 = and i32 %77, 8704
  %or.cond61 = icmp eq i32 %78, 0
  br i1 %or.cond61, label %88, label %79

79:                                               ; preds = %76
  tail call void @trigger_node_draining(ptr noundef nonnull %0) #15
  %80 = load i16, ptr %65, align 8
  %.not58 = icmp eq i16 %80, 0
  br i1 %.not58, label %81, label %88

81:                                               ; preds = %79
  %82 = getelementptr inbounds nuw i8, ptr %0, i64 64
  %83 = load i16, ptr %82, align 8
  %.not59 = icmp eq i16 %83, 0
  br i1 %.not59, label %84, label %88

84:                                               ; preds = %81
  tail call void @trigger_node_drained(ptr noundef nonnull %0) #15
  %85 = load ptr, ptr @acct_db_conn, align 8
  %86 = load i32, ptr getelementptr inbounds nuw (i8, ptr @slurm_conf, i64 1152), align 8
  %87 = tail call i32 @clusteracct_storage_g_node_down(ptr noundef %85, ptr noundef nonnull %0, i64 noundef %4, ptr noundef null, i32 noundef %86) #15
  br label %88

88:                                               ; preds = %76, %79, %81, %84
  %89 = load i32, ptr %48, align 8
  %90 = and i32 %89, 15
  %91 = icmp eq i32 %90, 1
  br i1 %91, label %92, label %98

92:                                               ; preds = %88
  %93 = tail call i32 @get_log_level() #15
  %94 = icmp sgt i32 %93, 6
  br i1 %94, label %95, label %105

95:                                               ; preds = %92
  %96 = getelementptr inbounds nuw i8, ptr %0, i64 272
  %97 = load ptr, ptr %96, align 8
  tail call void (i32, ptr, ...) @log_var(i32 noundef 7, ptr noundef nonnull @.str.117, ptr noundef nonnull @__func__.make_node_comp, ptr noundef %97) #15
  br label %105

98:                                               ; preds = %88
  %99 = load i16, ptr %65, align 8
  %.not60 = icmp eq i16 %99, 0
  br i1 %.not60, label %102, label %100

100:                                              ; preds = %98
  %101 = or disjoint i32 %64, 3
  store i32 %101, ptr %48, align 8
  br label %105

102:                                              ; preds = %98
  %103 = or disjoint i32 %64, 2
  store i32 %103, ptr %48, align 8
  %104 = getelementptr inbounds nuw i8, ptr %0, i64 232
  store i64 %4, ptr %104, align 8
  br label %105

105:                                              ; preds = %100, %102, %92, %95
  store i64 %4, ptr @last_node_update, align 8
  ret void
}